; Function Attrs: mustprogress nofree norecurse nosync nounwind willreturn memory(read, inaccessiblemem: none) uwtable
define dso_local noundef zeroext i1 @_ZN4Luau7CodeGen9IrBuilder15isInternalBlockENS0_4IrOpE(ptr noundef nonnull readonly align 8 captures(none) dereferenceable(752) %0, i32 %1) local_unnamed_addr #8 align 2 {
  %3 = getelementptr inbounds nuw i8, ptr %0, i64 24
  %4 = lshr i32 %1, 4
  %5 = zext nneg i32 %4 to i64
  %6 = load ptr, ptr %3, align 8, !tbaa !123
  %7 = getelementptr inbounds nuw %"struct.Luau::CodeGen::IrBlock", ptr %6, i64 %5
  %8 = load i8, ptr %7, align 4, !tbaa !165
  %9 = icmp eq i8 %8, 2
  ret i1 %9
}